target datalayout = "e-m:e-p270:32:32-p271:32:32-p272:64:64-i64:64-i128:128-f80:128-n8:16:32:64-S128"
target triple = "x86_64-pc-linux-gnu"

%struct.hm_header_st = type { i8, i64, i16, i64, i64, i32, %struct.dtls1_retransmit_state }
%struct.dtls1_retransmit_state = type { ptr, ptr }
%struct.ssl_connection_st = type { %struct.ssl_st, ptr, i32, ptr, ptr, ptr, i32, ptr, i32, i32, i32, i32, %struct.OSSL_TIME, %struct.OSSL_TIME, %struct.ossl_statem_st, i32, ptr, ptr, i64, i64, i64, %struct.ossl_quic_tls_callbacks_st, ptr, ptr, %struct.anon, ptr, ptr, ptr, i32, ptr, %struct.ssl_dane_st, ptr, ptr, ptr, ptr, i32, [64 x i8], [64 x i8], [64 x i8], [64 x i8], [64 x i8], [64 x i8], [64 x i8], [64 x i8], [64 x i8], [64 x i8], [64 x i8], [64 x i8], ptr, [64 x i8], i64, i32, i64, [32 x i8], ptr, ptr, ptr, i64, ptr, [32 x i8], i64, i32, ptr, ptr, i32, i32, ptr, ptr, ptr, ptr, ptr, i64, ptr, ptr, i64, i32, i32, i32, i64, i32, i32, i64, i64, i64, %struct.anon.1, ptr, i32, ptr, ptr, ptr, i32, ptr, ptr, ptr, i32, i32, i32, i32, ptr, i64, i32, ptr, %struct.srp_ctx_st, ptr, %struct.record_layer_st, ptr, ptr, ptr, ptr, i64, i32, i32, i32, i64, i64, i64, ptr, ptr, ptr, ptr, ptr, i64, ptr, i64, ptr, i64 }
%struct.ssl_st = type { i32, ptr, ptr, ptr, %struct.CRYPTO_REF_COUNT, ptr, %struct.crypto_ex_data_st }
%struct.CRYPTO_REF_COUNT = type { i32 }
%struct.crypto_ex_data_st = type { ptr, ptr }
%struct.OSSL_TIME = type { i64 }
%struct.ossl_statem_st = type { i32, i32, i32, i32, i32, i32, i32, i32, i32, i32, i32, i32, i32, ptr, ptr, ptr, i8 }
%struct.ossl_quic_tls_callbacks_st = type { ptr, ptr, ptr, ptr, ptr, ptr }
%struct.anon = type { i64, [32 x i8], [32 x i8], ptr, ptr, i32, i32, i32, i32, [2 x i8], i32, i32, i32, i32, %struct.anon.0, [64 x i8], i64, [64 x i8], i64, i32, i32, ptr, i64, ptr, i64, i32, i8, i8, i16, ptr, i16 }
%struct.anon.0 = type { [128 x i8], i64, [128 x i8], i64, i64, i32, ptr, ptr, [4 x ptr], [4 x i16], i64, i32, ptr, i64, ptr, i64, ptr, ptr, ptr, i32, i64, ptr, i32, ptr, i64, ptr, i64, ptr, i64, ptr, ptr, ptr, ptr, i64, i64, ptr, ptr, i32, i32, i32, i32 }
%struct.ssl_dane_st = type { ptr, ptr, ptr, ptr, ptr, i32, i32, i32, i64 }
%struct.anon.1 = type { [29 x i8], ptr, ptr, ptr, i32, ptr, i16, i32, %struct.anon.2, i32, i32, i64, ptr, i64, ptr, i64, ptr, i64, ptr, i64, ptr, i64, ptr, ptr, ptr, ptr, ptr, ptr, ptr, i64, ptr, i64, i32, i32, i32, i32, ptr, i64, i32, i8, i32, [4 x i32], i32, i8, i8, i8, i8 }
%struct.anon.2 = type { ptr, ptr, ptr, i64 }
%struct.srp_ctx_st = type { ptr, ptr, ptr, ptr, ptr, ptr, ptr, ptr, ptr, ptr, ptr, ptr, ptr, ptr, i32, i64 }
%struct.record_layer_st = type { ptr, ptr, ptr, ptr, ptr, ptr, ptr, ptr, i64, i32, i64, [4 x i8], i64, i64, i8, ptr, i32, ptr, ptr, ptr, i64, i64, i64, i64, [32 x %struct.tls_record_st] }
%struct.tls_record_st = type { ptr, i32, i8, ptr, ptr, i64, i64, i16, [8 x i8] }
%struct.dtls1_state_st = type { [255 x i8], i64, i32, i16, i16, i16, ptr, ptr, i64, i64, %struct.hm_header_st, %struct.hm_header_st, i32, %struct.OSSL_TIME, i32, i32, ptr }

@.str = private unnamed_addr constant [36 x i8] c"../openssl/ssl/statem/statem_dtls.c\00", align 1
@__func__.dtls1_preprocess_fragment = private unnamed_addr constant [26 x i8] c"dtls1_preprocess_fragment\00", align 1

; Function Attrs: nounwind uwtable
define internal i64 @dtls1_max_handshake_message_len(ptr noundef %0) #0 {
  %2 = alloca i64, align 8
  %3 = alloca ptr, align 8
  %4 = alloca i64, align 8
  %5 = alloca i32, align 4
  store ptr %0, ptr %3, align 8, !tbaa !19
  call void @llvm.lifetime.start.p0(i64 8, ptr %4) #6
  store i64 17740, ptr %4, align 8, !tbaa !91
  %6 = load i64, ptr %4, align 8, !tbaa !91
  %7 = load ptr, ptr %3, align 8, !tbaa !19
  %8 = getelementptr inbounds nuw %struct.ssl_connection_st, ptr %7, i32 0, i32 78
  %9 = load i64, ptr %8, align 8, !tbaa !164
  %10 = icmp ult i64 %6, %9
  br i1 %10, label %11, label %15

11:                                               ; preds = %1
  %12 = load ptr, ptr %3, align 8, !tbaa !19
  %13 = getelementptr inbounds nuw %struct.ssl_connection_st, ptr %12, i32 0, i32 78
  %14 = load i64, ptr %13, align 8, !tbaa !164
  store i64 %14, ptr %2, align 8
  store i32 1, ptr %5, align 4
  br label %17

15:                                               ; preds = %1
  %16 = load i64, ptr %4, align 8, !tbaa !91
  store i64 %16, ptr %2, align 8
  store i32 1, ptr %5, align 4
  br label %17

17:                                               ; preds = %15, %11
  call void @llvm.lifetime.end.p0(i64 8, ptr %4) #6
  %18 = load i64, ptr %2, align 8
  ret i64 %18
}

; Function Attrs: nounwind uwtable
define internal i32 @dtls1_preprocess_fragment(ptr noundef %0, ptr noundef %1) #0 {
  %3 = alloca i32, align 4
  %4 = alloca ptr, align 8
  %5 = alloca ptr, align 8
  %6 = alloca i64, align 8
  %7 = alloca i64, align 8
  %8 = alloca i64, align 8
  %9 = alloca i32, align 4
  store ptr %0, ptr %4, align 8, !tbaa !19
  store ptr %1, ptr %5, align 8, !tbaa !100
  call void @llvm.lifetime.start.p0(i64 8, ptr %6) #6
  call void @llvm.lifetime.start.p0(i64 8, ptr %7) #6
  call void @llvm.lifetime.start.p0(i64 8, ptr %8) #6
  %10 = load ptr, ptr %5, align 8, !tbaa !100
  %11 = getelementptr inbounds nuw %struct.hm_header_st, ptr %10, i32 0, i32 1
  %12 = load i64, ptr %11, align 8, !tbaa !104
  store i64 %12, ptr %8, align 8, !tbaa !91
  %13 = load ptr, ptr %5, align 8, !tbaa !100
  %14 = getelementptr inbounds nuw %struct.hm_header_st, ptr %13, i32 0, i32 3
  %15 = load i64, ptr %14, align 8, !tbaa !110
  store i64 %15, ptr %6, align 8, !tbaa !91
  %16 = load ptr, ptr %5, align 8, !tbaa !100
  %17 = getelementptr inbounds nuw %struct.hm_header_st, ptr %16, i32 0, i32 4
  %18 = load i64, ptr %17, align 8, !tbaa !111
  store i64 %18, ptr %7, align 8, !tbaa !91
  %19 = load i64, ptr %6, align 8, !tbaa !91
  %20 = load i64, ptr %7, align 8, !tbaa !91
  %21 = add i64 %19, %20
  %22 = load i64, ptr %8, align 8, !tbaa !91
  %23 = icmp ugt i64 %21, %22
  br i1 %23, label %29, label %24

24:                                               ; preds = %2
  %25 = load i64, ptr %8, align 8, !tbaa !91
  %26 = load ptr, ptr %4, align 8, !tbaa !19
  %27 = call i64 @dtls1_max_handshake_message_len(ptr noundef %26)
  %28 = icmp ugt i64 %25, %27
  br i1 %28, label %29, label %31

29:                                               ; preds = %24, %2
  call void @ERR_new()
  call void @ERR_set_debug(ptr noundef @.str, i32 noundef 446, ptr noundef @__func__.dtls1_preprocess_fragment)
  %30 = load ptr, ptr %4, align 8, !tbaa !19
  call void (ptr, i32, i32, ptr, ...) @ossl_statem_fatal(ptr noundef %30, i32 noundef 47, i32 noundef 152, ptr noundef null)
  store i32 0, ptr %3, align 4
  store i32 1, ptr %9, align 4
  br label %98

31:                                               ; preds = %24
  %32 = load ptr, ptr %4, align 8, !tbaa !19
  %33 = getelementptr inbounds nuw %struct.ssl_connection_st, ptr %32, i32 0, i32 25
  %34 = load ptr, ptr %33, align 8, !tbaa !80
  %35 = getelementptr inbounds nuw %struct.dtls1_state_st, ptr %34, i32 0, i32 11
  %36 = getelementptr inbounds nuw %struct.hm_header_st, ptr %35, i32 0, i32 3
  %37 = load i64, ptr %36, align 8, !tbaa !127
  %38 = icmp eq i64 %37, 0
  br i1 %38, label %39, label %85

39:                                               ; preds = %31
  %40 = load ptr, ptr %4, align 8, !tbaa !19
  %41 = getelementptr inbounds nuw %struct.ssl_connection_st, ptr %40, i32 0, i32 16
  %42 = load ptr, ptr %41, align 8, !tbaa !95
  %43 = load i64, ptr %8, align 8, !tbaa !91
  %44 = add i64 %43, 12
  %45 = call i64 @BUF_MEM_grow_clean(ptr noundef %42, i64 noundef %44)
  %46 = icmp ne i64 %45, 0
  br i1 %46, label %49, label %47

47:                                               ; preds = %39
  call void @ERR_new()
  call void @ERR_set_debug(ptr noundef @.str, i32 noundef 456, ptr noundef @__func__.dtls1_preprocess_fragment)
  %48 = load ptr, ptr %4, align 8, !tbaa !19
  call void (ptr, i32, i32, ptr, ...) @ossl_statem_fatal(ptr noundef %48, i32 noundef 80, i32 noundef 524295, ptr noundef null)
  store i32 0, ptr %3, align 4
  store i32 1, ptr %9, align 4
  br label %98

49:                                               ; preds = %39
  %50 = load i64, ptr %8, align 8, !tbaa !91
  %51 = load ptr, ptr %4, align 8, !tbaa !19
  %52 = getelementptr inbounds nuw %struct.ssl_connection_st, ptr %51, i32 0, i32 24
  %53 = getelementptr inbounds nuw %struct.anon, ptr %52, i32 0, i32 14
  %54 = getelementptr inbounds nuw %struct.anon.0, ptr %53, i32 0, i32 4
  store i64 %50, ptr %54, align 8, !tbaa !121
  %55 = load i64, ptr %8, align 8, !tbaa !91
  %56 = load ptr, ptr %4, align 8, !tbaa !19
  %57 = getelementptr inbounds nuw %struct.ssl_connection_st, ptr %56, i32 0, i32 25
  %58 = load ptr, ptr %57, align 8, !tbaa !80
  %59 = getelementptr inbounds nuw %struct.dtls1_state_st, ptr %58, i32 0, i32 11
  %60 = getelementptr inbounds nuw %struct.hm_header_st, ptr %59, i32 0, i32 1
  store i64 %55, ptr %60, align 8, !tbaa !161
  %61 = load ptr, ptr %5, align 8, !tbaa !100
  %62 = getelementptr inbounds nuw %struct.hm_header_st, ptr %61, i32 0, i32 0
  %63 = load i8, ptr %62, align 8, !tbaa !103
  %64 = zext i8 %63 to i32
  %65 = load ptr, ptr %4, align 8, !tbaa !19
  %66 = getelementptr inbounds nuw %struct.ssl_connection_st, ptr %65, i32 0, i32 24
  %67 = getelementptr inbounds nuw %struct.anon, ptr %66, i32 0, i32 14
  %68 = getelementptr inbounds nuw %struct.anon.0, ptr %67, i32 0, i32 5
  store i32 %64, ptr %68, align 8, !tbaa !113
  %69 = load ptr, ptr %5, align 8, !tbaa !100
  %70 = getelementptr inbounds nuw %struct.hm_header_st, ptr %69, i32 0, i32 0
  %71 = load i8, ptr %70, align 8, !tbaa !103
  %72 = load ptr, ptr %4, align 8, !tbaa !19
  %73 = getelementptr inbounds nuw %struct.ssl_connection_st, ptr %72, i32 0, i32 25
  %74 = load ptr, ptr %73, align 8, !tbaa !80
  %75 = getelementptr inbounds nuw %struct.dtls1_state_st, ptr %74, i32 0, i32 11
  %76 = getelementptr inbounds nuw %struct.hm_header_st, ptr %75, i32 0, i32 0
  store i8 %71, ptr %76, align 8, !tbaa !162
  %77 = load ptr, ptr %5, align 8, !tbaa !100
  %78 = getelementptr inbounds nuw %struct.hm_header_st, ptr %77, i32 0, i32 2
  %79 = load i16, ptr %78, align 8, !tbaa !105
  %80 = load ptr, ptr %4, align 8, !tbaa !19
  %81 = getelementptr inbounds nuw %struct.ssl_connection_st, ptr %80, i32 0, i32 25
  %82 = load ptr, ptr %81, align 8, !tbaa !80
  %83 = getelementptr inbounds nuw %struct.dtls1_state_st, ptr %82, i32 0, i32 11
  %84 = getelementptr inbounds nuw %struct.hm_header_st, ptr %83, i32 0, i32 2
  store i16 %79, ptr %84, align 8, !tbaa !163
  br label %97

85:                                               ; preds = %31
  %86 = load i64, ptr %8, align 8, !tbaa !91
  %87 = load ptr, ptr %4, align 8, !tbaa !19
  %88 = getelementptr inbounds nuw %struct.ssl_connection_st, ptr %87, i32 0, i32 25
  %89 = load ptr, ptr %88, align 8, !tbaa !80
  %90 = getelementptr inbounds nuw %struct.dtls1_state_st, ptr %89, i32 0, i32 11
  %91 = getelementptr inbounds nuw %struct.hm_header_st, ptr %90, i32 0, i32 1
  %92 = load i64, ptr %91, align 8, !tbaa !161
  %93 = icmp ne i64 %86, %92
  br i1 %93, label %94, label %96

94:                                               ; preds = %85
  call void @ERR_new()
  call void @ERR_set_debug(ptr noundef @.str, i32 noundef 470, ptr noundef @__func__.dtls1_preprocess_fragment)
  %95 = load ptr, ptr %4, align 8, !tbaa !19
  call void (ptr, i32, i32, ptr, ...) @ossl_statem_fatal(ptr noundef %95, i32 noundef 47, i32 noundef 152, ptr noundef null)
  store i32 0, ptr %3, align 4
  store i32 1, ptr %9, align 4
  br label %98

96:                                               ; preds = %85
  br label %97

97:                                               ; preds = %96, %49
  store i32 1, ptr %3, align 4
  store i32 1, ptr %9, align 4
  br label %98

98:                                               ; preds = %97, %94, %47, %29
  call void @llvm.lifetime.end.p0(i64 8, ptr %8) #6
  call void @llvm.lifetime.end.p0(i64 8, ptr %7) #6
  call void @llvm.lifetime.end.p0(i64 8, ptr %6) #6
  %99 = load i32, ptr %3, align 4
  ret i32 %99
}