; Function Attrs: nounwind uwtable
define internal fastcc range(i32 0, 2) i32 @dtls1_preprocess_fragment(ptr noundef %0, ptr noundef readonly captures(none) %1) unnamed_addr #0 {
  %3 = getelementptr inbounds nuw i8, ptr %1, i64 8
  %4 = load i64, ptr %3, align 8, !tbaa !96
  %5 = getelementptr inbounds nuw i8, ptr %1, i64 24
  %6 = load i64, ptr %5, align 8, !tbaa !89
  %7 = getelementptr inbounds nuw i8, ptr %1, i64 32
  %8 = load i64, ptr %7, align 8, !tbaa !90
  %9 = add i64 %8, %6
  %10 = icmp ugt i64 %9, %4
  br i1 %10, label %14, label %11

11:                                               ; preds = %2
  %12 = getelementptr i8, ptr %0, i64 2504
  %.val = load i64, ptr %12, align 8, !tbaa !129
  %..i = tail call range(i64 17740, 0) i64 @llvm.umax.i64(i64 %.val, i64 17740)
  %13 = icmp ugt i64 %4, %..i
  br i1 %13, label %14, label %15

14:                                               ; preds = %11, %2
  tail call void @ERR_new() #9
  tail call void @ERR_set_debug(ptr noundef nonnull @.str, i32 noundef 446, ptr noundef nonnull @__func__.dtls1_preprocess_fragment) #9
  tail call void (ptr, i32, i32, ptr, ...) @ossl_statem_fatal(ptr noundef %0, i32 noundef 47, i32 noundef 152, ptr noundef null) #9
  br label %42

15:                                               ; preds = %11
  %16 = getelementptr inbounds nuw i8, ptr %0, i64 1264
  %17 = load ptr, ptr %16, align 8, !tbaa !74
  %18 = getelementptr inbounds nuw i8, ptr %17, i64 400
  %19 = load i64, ptr %18, align 8, !tbaa !131
  %20 = icmp eq i64 %19, 0
  br i1 %20, label %21, label %38

21:                                               ; preds = %15
  %22 = getelementptr inbounds nuw i8, ptr %0, i64 248
  %23 = load ptr, ptr %22, align 8, !tbaa !91
  %24 = add i64 %4, 12
  %25 = tail call i64 @BUF_MEM_grow_clean(ptr noundef %23, i64 noundef %24) #9
  %.not27 = icmp eq i64 %25, 0
  br i1 %.not27, label %26, label %27

26:                                               ; preds = %21
  tail call void @ERR_new() #9
  tail call void @ERR_set_debug(ptr noundef nonnull @.str, i32 noundef 456, ptr noundef nonnull @__func__.dtls1_preprocess_fragment) #9
  tail call void (ptr, i32, i32, ptr, ...) @ossl_statem_fatal(ptr noundef nonnull %0, i32 noundef 80, i32 noundef 524295, ptr noundef null) #9
  br label %42

27:                                               ; preds = %21
  %28 = getelementptr inbounds nuw i8, ptr %0, i64 752
  store i64 %4, ptr %28, align 8, !tbaa !124
  %29 = load ptr, ptr %16, align 8, !tbaa !74
  %30 = getelementptr inbounds nuw i8, ptr %29, i64 384
  store i64 %4, ptr %30, align 8, !tbaa !149
  %31 = load i8, ptr %1, align 8, !tbaa !94
  %32 = zext i8 %31 to i32
  %33 = getelementptr inbounds nuw i8, ptr %0, i64 760
  store i32 %32, ptr %33, align 8, !tbaa !123
  %34 = getelementptr inbounds nuw i8, ptr %29, i64 376
  store i8 %31, ptr %34, align 8, !tbaa !150
  %35 = getelementptr inbounds nuw i8, ptr %1, i64 16
  %36 = load i16, ptr %35, align 8, !tbaa !97
  %37 = getelementptr inbounds nuw i8, ptr %29, i64 392
  store i16 %36, ptr %37, align 8, !tbaa !151
  br label %42

38:                                               ; preds = %15
  %39 = getelementptr inbounds nuw i8, ptr %17, i64 384
  %40 = load i64, ptr %39, align 8, !tbaa !149
  %.not = icmp eq i64 %4, %40
  br i1 %.not, label %42, label %41

41:                                               ; preds = %38
  tail call void @ERR_new() #9
  tail call void @ERR_set_debug(ptr noundef nonnull @.str, i32 noundef 470, ptr noundef nonnull @__func__.dtls1_preprocess_fragment) #9
  tail call void (ptr, i32, i32, ptr, ...) @ossl_statem_fatal(ptr noundef nonnull %0, i32 noundef 47, i32 noundef 152, ptr noundef null) #9
  br label %42

42:                                               ; preds = %27, %38, %41, %26, %14
  %.0 = phi i32 [ 0, %14 ], [ 0, %26 ], [ 0, %41 ], [ 1, %38 ], [ 1, %27 ]
  ret i32 %.0
}